ARM GAS  C:\Users\ADMINI~1\AppData\Local\Temp\cc6ycclI.s 			page 1


   1              		.cpu cortex-m7
   2              		.eabi_attribute 28, 1
   3              		.eabi_attribute 20, 1
   4              		.eabi_attribute 21, 1
   5              		.eabi_attribute 23, 3
   6              		.eabi_attribute 24, 1
   7              		.eabi_attribute 25, 1
   8              		.eabi_attribute 26, 1
   9              		.eabi_attribute 30, 1
  10              		.eabi_attribute 34, 1
  11              		.eabi_attribute 18, 4
  12              		.file	"usart.c"
  13              		.text
  14              	.Ltext0:
  15              		.cfi_sections	.debug_frame
  16              		.section	.text.MX_USART1_UART_Init,"ax",%progbits
  17              		.align	1
  18              		.global	MX_USART1_UART_Init
  19              		.arch armv7e-m
  20              		.syntax unified
  21              		.thumb
  22              		.thumb_func
  23              		.fpu fpv5-d16
  25              	MX_USART1_UART_Init:
  26              	.LFB147:
  27              		.file 1 "Core/Src/usart.c"
   1:Core/Src/usart.c **** /* USER CODE BEGIN Header */
   2:Core/Src/usart.c **** /**
   3:Core/Src/usart.c ****   ******************************************************************************
   4:Core/Src/usart.c ****   * @file    usart.c
   5:Core/Src/usart.c ****   * @brief   This file provides code for the configuration
   6:Core/Src/usart.c ****   *          of the USART instances.
   7:Core/Src/usart.c ****   ******************************************************************************
   8:Core/Src/usart.c ****   * @attention
   9:Core/Src/usart.c ****   *
  10:Core/Src/usart.c ****   * Copyright (c) 2023 STMicroelectronics.
  11:Core/Src/usart.c ****   * All rights reserved.
  12:Core/Src/usart.c ****   *
  13:Core/Src/usart.c ****   * This software is licensed under terms that can be found in the LICENSE file
  14:Core/Src/usart.c ****   * in the root directory of this software component.
  15:Core/Src/usart.c ****   * If no LICENSE file comes with this software, it is provided AS-IS.
  16:Core/Src/usart.c ****   *
  17:Core/Src/usart.c ****   ******************************************************************************
  18:Core/Src/usart.c ****   */
  19:Core/Src/usart.c **** /* USER CODE END Header */
  20:Core/Src/usart.c **** /* Includes ------------------------------------------------------------------*/
  21:Core/Src/usart.c **** #include "usart.h"
  22:Core/Src/usart.c **** 
  23:Core/Src/usart.c **** /* USER CODE BEGIN 0 */
  24:Core/Src/usart.c **** 
  25:Core/Src/usart.c **** /* USER CODE END 0 */
  26:Core/Src/usart.c **** 
  27:Core/Src/usart.c **** UART_HandleTypeDef huart1;
  28:Core/Src/usart.c **** 
  29:Core/Src/usart.c **** /* USART1 init function */
  30:Core/Src/usart.c **** 
  31:Core/Src/usart.c **** void MX_USART1_UART_Init(void)
ARM GAS  C:\Users\ADMINI~1\AppData\Local\Temp\cc6ycclI.s 			page 2


  32:Core/Src/usart.c **** {
  28              		.loc 1 32 1 view -0
  29              		.cfi_startproc
  30              		@ args = 0, pretend = 0, frame = 0
  31              		@ frame_needed = 0, uses_anonymous_args = 0
  32 0000 08B5     		push	{r3, lr}
  33              	.LCFI0:
  34              		.cfi_def_cfa_offset 8
  35              		.cfi_offset 3, -8
  36              		.cfi_offset 14, -4
  33:Core/Src/usart.c **** 
  34:Core/Src/usart.c ****   /* USER CODE BEGIN USART1_Init 0 */
  35:Core/Src/usart.c **** 
  36:Core/Src/usart.c ****   /* USER CODE END USART1_Init 0 */
  37:Core/Src/usart.c **** 
  38:Core/Src/usart.c ****   /* USER CODE BEGIN USART1_Init 1 */
  39:Core/Src/usart.c **** 
  40:Core/Src/usart.c ****   /* USER CODE END USART1_Init 1 */
  41:Core/Src/usart.c ****   huart1.Instance = USART1;
  37              		.loc 1 41 3 view .LVU1
  38              		.loc 1 41 19 is_stmt 0 view .LVU2
  39 0002 1748     		ldr	r0, .L11
  40 0004 174B     		ldr	r3, .L11+4
  41 0006 0360     		str	r3, [r0]
  42:Core/Src/usart.c ****   huart1.Init.BaudRate = 115200;
  42              		.loc 1 42 3 is_stmt 1 view .LVU3
  43              		.loc 1 42 24 is_stmt 0 view .LVU4
  44 0008 4FF4E133 		mov	r3, #115200
  45 000c 4360     		str	r3, [r0, #4]
  43:Core/Src/usart.c ****   huart1.Init.WordLength = UART_WORDLENGTH_8B;
  46              		.loc 1 43 3 is_stmt 1 view .LVU5
  47              		.loc 1 43 26 is_stmt 0 view .LVU6
  48 000e 0023     		movs	r3, #0
  49 0010 8360     		str	r3, [r0, #8]
  44:Core/Src/usart.c ****   huart1.Init.StopBits = UART_STOPBITS_1;
  50              		.loc 1 44 3 is_stmt 1 view .LVU7
  51              		.loc 1 44 24 is_stmt 0 view .LVU8
  52 0012 C360     		str	r3, [r0, #12]
  45:Core/Src/usart.c ****   huart1.Init.Parity = UART_PARITY_NONE;
  53              		.loc 1 45 3 is_stmt 1 view .LVU9
  54              		.loc 1 45 22 is_stmt 0 view .LVU10
  55 0014 0361     		str	r3, [r0, #16]
  46:Core/Src/usart.c ****   huart1.Init.Mode = UART_MODE_TX_RX;
  56              		.loc 1 46 3 is_stmt 1 view .LVU11
  57              		.loc 1 46 20 is_stmt 0 view .LVU12
  58 0016 0C22     		movs	r2, #12
  59 0018 4261     		str	r2, [r0, #20]
  47:Core/Src/usart.c ****   huart1.Init.HwFlowCtl = UART_HWCONTROL_NONE;
  60              		.loc 1 47 3 is_stmt 1 view .LVU13
  61              		.loc 1 47 25 is_stmt 0 view .LVU14
  62 001a 8361     		str	r3, [r0, #24]
  48:Core/Src/usart.c ****   huart1.Init.OverSampling = UART_OVERSAMPLING_16;
  63              		.loc 1 48 3 is_stmt 1 view .LVU15
  64              		.loc 1 48 28 is_stmt 0 view .LVU16
  65 001c C361     		str	r3, [r0, #28]
  49:Core/Src/usart.c ****   huart1.Init.OneBitSampling = UART_ONE_BIT_SAMPLE_DISABLE;
  66              		.loc 1 49 3 is_stmt 1 view .LVU17
ARM GAS  C:\Users\ADMINI~1\AppData\Local\Temp\cc6ycclI.s 			page 3


  67              		.loc 1 49 30 is_stmt 0 view .LVU18
  68 001e 0362     		str	r3, [r0, #32]
  50:Core/Src/usart.c ****   huart1.Init.ClockPrescaler = UART_PRESCALER_DIV1;
  69              		.loc 1 50 3 is_stmt 1 view .LVU19
  70              		.loc 1 50 30 is_stmt 0 view .LVU20
  71 0020 4362     		str	r3, [r0, #36]
  51:Core/Src/usart.c ****   huart1.AdvancedInit.AdvFeatureInit = UART_ADVFEATURE_NO_INIT;
  72              		.loc 1 51 3 is_stmt 1 view .LVU21
  73              		.loc 1 51 38 is_stmt 0 view .LVU22
  74 0022 8362     		str	r3, [r0, #40]
  52:Core/Src/usart.c ****   if (HAL_UART_Init(&huart1) != HAL_OK)
  75              		.loc 1 52 3 is_stmt 1 view .LVU23
  76              		.loc 1 52 7 is_stmt 0 view .LVU24
  77 0024 FFF7FEFF 		bl	HAL_UART_Init
  78              	.LVL0:
  79              		.loc 1 52 6 view .LVU25
  80 0028 70B9     		cbnz	r0, .L7
  81              	.L2:
  53:Core/Src/usart.c ****   {
  54:Core/Src/usart.c ****     Error_Handler();
  55:Core/Src/usart.c ****   }
  56:Core/Src/usart.c ****   if (HAL_UARTEx_SetTxFifoThreshold(&huart1, UART_TXFIFO_THRESHOLD_1_8) != HAL_OK)
  82              		.loc 1 56 3 is_stmt 1 view .LVU26
  83              		.loc 1 56 7 is_stmt 0 view .LVU27
  84 002a 0021     		movs	r1, #0
  85 002c 0C48     		ldr	r0, .L11
  86 002e FFF7FEFF 		bl	HAL_UARTEx_SetTxFifoThreshold
  87              	.LVL1:
  88              		.loc 1 56 6 view .LVU28
  89 0032 60B9     		cbnz	r0, .L8
  90              	.L3:
  57:Core/Src/usart.c ****   {
  58:Core/Src/usart.c ****     Error_Handler();
  59:Core/Src/usart.c ****   }
  60:Core/Src/usart.c ****   if (HAL_UARTEx_SetRxFifoThreshold(&huart1, UART_RXFIFO_THRESHOLD_1_8) != HAL_OK)
  91              		.loc 1 60 3 is_stmt 1 view .LVU29
  92              		.loc 1 60 7 is_stmt 0 view .LVU30
  93 0034 0021     		movs	r1, #0
  94 0036 0A48     		ldr	r0, .L11
  95 0038 FFF7FEFF 		bl	HAL_UARTEx_SetRxFifoThreshold
  96              	.LVL2:
  97              		.loc 1 60 6 view .LVU31
  98 003c 50B9     		cbnz	r0, .L9
  99              	.L4:
  61:Core/Src/usart.c ****   {
  62:Core/Src/usart.c ****     Error_Handler();
  63:Core/Src/usart.c ****   }
  64:Core/Src/usart.c ****   if (HAL_UARTEx_DisableFifoMode(&huart1) != HAL_OK)
 100              		.loc 1 64 3 is_stmt 1 view .LVU32
 101              		.loc 1 64 7 is_stmt 0 view .LVU33
 102 003e 0848     		ldr	r0, .L11
 103 0040 FFF7FEFF 		bl	HAL_UARTEx_DisableFifoMode
 104              	.LVL3:
 105              		.loc 1 64 6 view .LVU34
 106 0044 48B9     		cbnz	r0, .L10
 107              	.L1:
  65:Core/Src/usart.c ****   {
ARM GAS  C:\Users\ADMINI~1\AppData\Local\Temp\cc6ycclI.s 			page 4


  66:Core/Src/usart.c ****     Error_Handler();
  67:Core/Src/usart.c ****   }
  68:Core/Src/usart.c ****   /* USER CODE BEGIN USART1_Init 2 */
  69:Core/Src/usart.c **** 
  70:Core/Src/usart.c ****   /* USER CODE END USART1_Init 2 */
  71:Core/Src/usart.c **** 
  72:Core/Src/usart.c **** }
 108              		.loc 1 72 1 view .LVU35
 109 0046 08BD     		pop	{r3, pc}
 110              	.L7:
  54:Core/Src/usart.c ****   }
 111              		.loc 1 54 5 is_stmt 1 view .LVU36
 112 0048 FFF7FEFF 		bl	Error_Handler
 113              	.LVL4:
 114 004c EDE7     		b	.L2
 115              	.L8:
  58:Core/Src/usart.c ****   }
 116              		.loc 1 58 5 view .LVU37
 117 004e FFF7FEFF 		bl	Error_Handler
 118              	.LVL5:
 119 0052 EFE7     		b	.L3
 120              	.L9:
  62:Core/Src/usart.c ****   }
 121              		.loc 1 62 5 view .LVU38
 122 0054 FFF7FEFF 		bl	Error_Handler
 123              	.LVL6:
 124 0058 F1E7     		b	.L4
 125              	.L10:
  66:Core/Src/usart.c ****   }
 126              		.loc 1 66 5 view .LVU39
 127 005a FFF7FEFF 		bl	Error_Handler
 128              	.LVL7:
 129              		.loc 1 72 1 is_stmt 0 view .LVU40
 130 005e F2E7     		b	.L1
 131              	.L12:
 132              		.align	2
 133              	.L11:
 134 0060 00000000 		.word	.LANCHOR0
 135 0064 00100140 		.word	1073811456
 136              		.cfi_endproc
 137              	.LFE147:
 139              		.section	.text.HAL_UART_MspInit,"ax",%progbits
 140              		.align	1
 141              		.global	HAL_UART_MspInit
 142              		.syntax unified
 143              		.thumb
 144              		.thumb_func
 145              		.fpu fpv5-d16
 147              	HAL_UART_MspInit:
 148              	.LVL8:
 149              	.LFB148:
  73:Core/Src/usart.c **** 
  74:Core/Src/usart.c **** void HAL_UART_MspInit(UART_HandleTypeDef* uartHandle)
  75:Core/Src/usart.c **** {
 150              		.loc 1 75 1 is_stmt 1 view -0
 151              		.cfi_startproc
 152              		@ args = 0, pretend = 0, frame = 216
ARM GAS  C:\Users\ADMINI~1\AppData\Local\Temp\cc6ycclI.s 			page 5


 153              		@ frame_needed = 0, uses_anonymous_args = 0
 154              		.loc 1 75 1 is_stmt 0 view .LVU42
 155 0000 10B5     		push	{r4, lr}
 156              	.LCFI1:
 157              		.cfi_def_cfa_offset 8
 158              		.cfi_offset 4, -8
 159              		.cfi_offset 14, -4
 160 0002 B6B0     		sub	sp, sp, #216
 161              	.LCFI2:
 162              		.cfi_def_cfa_offset 224
 163 0004 0446     		mov	r4, r0
  76:Core/Src/usart.c **** 
  77:Core/Src/usart.c ****   GPIO_InitTypeDef GPIO_InitStruct = {0};
 164              		.loc 1 77 3 is_stmt 1 view .LVU43
 165              		.loc 1 77 20 is_stmt 0 view .LVU44
 166 0006 0021     		movs	r1, #0
 167 0008 3191     		str	r1, [sp, #196]
 168 000a 3291     		str	r1, [sp, #200]
 169 000c 3391     		str	r1, [sp, #204]
 170 000e 3491     		str	r1, [sp, #208]
 171 0010 3591     		str	r1, [sp, #212]
  78:Core/Src/usart.c ****   RCC_PeriphCLKInitTypeDef PeriphClkInitStruct = {0};
 172              		.loc 1 78 3 is_stmt 1 view .LVU45
 173              		.loc 1 78 28 is_stmt 0 view .LVU46
 174 0012 B822     		movs	r2, #184
 175 0014 02A8     		add	r0, sp, #8
 176              	.LVL9:
 177              		.loc 1 78 28 view .LVU47
 178 0016 FFF7FEFF 		bl	memset
 179              	.LVL10:
  79:Core/Src/usart.c ****   if(uartHandle->Instance==USART1)
 180              		.loc 1 79 3 is_stmt 1 view .LVU48
 181              		.loc 1 79 16 is_stmt 0 view .LVU49
 182 001a 2268     		ldr	r2, [r4]
 183              		.loc 1 79 5 view .LVU50
 184 001c 1B4B     		ldr	r3, .L19
 185 001e 9A42     		cmp	r2, r3
 186 0020 01D0     		beq	.L17
 187              	.L13:
  80:Core/Src/usart.c ****   {
  81:Core/Src/usart.c ****   /* USER CODE BEGIN USART1_MspInit 0 */
  82:Core/Src/usart.c **** 
  83:Core/Src/usart.c ****   /* USER CODE END USART1_MspInit 0 */
  84:Core/Src/usart.c **** 
  85:Core/Src/usart.c ****   /** Initializes the peripherals clock
  86:Core/Src/usart.c ****   */
  87:Core/Src/usart.c ****     PeriphClkInitStruct.PeriphClockSelection = RCC_PERIPHCLK_USART1;
  88:Core/Src/usart.c ****     PeriphClkInitStruct.Usart16ClockSelection = RCC_USART16910CLKSOURCE_D2PCLK2;
  89:Core/Src/usart.c ****     if (HAL_RCCEx_PeriphCLKConfig(&PeriphClkInitStruct) != HAL_OK)
  90:Core/Src/usart.c ****     {
  91:Core/Src/usart.c ****       Error_Handler();
  92:Core/Src/usart.c ****     }
  93:Core/Src/usart.c **** 
  94:Core/Src/usart.c ****     /* USART1 clock enable */
  95:Core/Src/usart.c ****     __HAL_RCC_USART1_CLK_ENABLE();
  96:Core/Src/usart.c **** 
  97:Core/Src/usart.c ****     __HAL_RCC_GPIOB_CLK_ENABLE();
ARM GAS  C:\Users\ADMINI~1\AppData\Local\Temp\cc6ycclI.s 			page 6


  98:Core/Src/usart.c ****     /**USART1 GPIO Configuration
  99:Core/Src/usart.c ****     PB14     ------> USART1_TX
 100:Core/Src/usart.c ****     PB15     ------> USART1_RX
 101:Core/Src/usart.c ****     */
 102:Core/Src/usart.c ****     GPIO_InitStruct.Pin = GPIO_PIN_14|GPIO_PIN_15;
 103:Core/Src/usart.c ****     GPIO_InitStruct.Mode = GPIO_MODE_AF_PP;
 104:Core/Src/usart.c ****     GPIO_InitStruct.Pull = GPIO_NOPULL;
 105:Core/Src/usart.c ****     GPIO_InitStruct.Speed = GPIO_SPEED_FREQ_LOW;
 106:Core/Src/usart.c ****     GPIO_InitStruct.Alternate = GPIO_AF4_USART1;
 107:Core/Src/usart.c ****     HAL_GPIO_Init(GPIOB, &GPIO_InitStruct);
 108:Core/Src/usart.c **** 
 109:Core/Src/usart.c ****   /* USER CODE BEGIN USART1_MspInit 1 */
 110:Core/Src/usart.c **** 
 111:Core/Src/usart.c ****   /* USER CODE END USART1_MspInit 1 */
 112:Core/Src/usart.c ****   }
 113:Core/Src/usart.c **** }
 188              		.loc 1 113 1 view .LVU51
 189 0022 36B0     		add	sp, sp, #216
 190              	.LCFI3:
 191              		.cfi_remember_state
 192              		.cfi_def_cfa_offset 8
 193              		@ sp needed
 194 0024 10BD     		pop	{r4, pc}
 195              	.LVL11:
 196              	.L17:
 197              	.LCFI4:
 198              		.cfi_restore_state
  87:Core/Src/usart.c ****     PeriphClkInitStruct.Usart16ClockSelection = RCC_USART16910CLKSOURCE_D2PCLK2;
 199              		.loc 1 87 5 is_stmt 1 view .LVU52
  87:Core/Src/usart.c ****     PeriphClkInitStruct.Usart16ClockSelection = RCC_USART16910CLKSOURCE_D2PCLK2;
 200              		.loc 1 87 46 is_stmt 0 view .LVU53
 201 0026 0122     		movs	r2, #1
 202 0028 0023     		movs	r3, #0
 203 002a CDE90223 		strd	r2, [sp, #8]
  88:Core/Src/usart.c ****     if (HAL_RCCEx_PeriphCLKConfig(&PeriphClkInitStruct) != HAL_OK)
 204              		.loc 1 88 5 is_stmt 1 view .LVU54
  89:Core/Src/usart.c ****     {
 205              		.loc 1 89 5 view .LVU55
  89:Core/Src/usart.c ****     {
 206              		.loc 1 89 9 is_stmt 0 view .LVU56
 207 002e 02A8     		add	r0, sp, #8
 208 0030 FFF7FEFF 		bl	HAL_RCCEx_PeriphCLKConfig
 209              	.LVL12:
  89:Core/Src/usart.c ****     {
 210              		.loc 1 89 8 view .LVU57
 211 0034 38BB     		cbnz	r0, .L18
 212              	.L15:
  95:Core/Src/usart.c **** 
 213              		.loc 1 95 5 is_stmt 1 view .LVU58
 214              	.LBB2:
  95:Core/Src/usart.c **** 
 215              		.loc 1 95 5 view .LVU59
  95:Core/Src/usart.c **** 
 216              		.loc 1 95 5 view .LVU60
 217 0036 164B     		ldr	r3, .L19+4
 218 0038 D3F8F020 		ldr	r2, [r3, #240]
 219 003c 42F01002 		orr	r2, r2, #16
ARM GAS  C:\Users\ADMINI~1\AppData\Local\Temp\cc6ycclI.s 			page 7


 220 0040 C3F8F020 		str	r2, [r3, #240]
  95:Core/Src/usart.c **** 
 221              		.loc 1 95 5 view .LVU61
 222 0044 D3F8F020 		ldr	r2, [r3, #240]
 223 0048 02F01002 		and	r2, r2, #16
 224 004c 0092     		str	r2, [sp]
  95:Core/Src/usart.c **** 
 225              		.loc 1 95 5 view .LVU62
 226 004e 009A     		ldr	r2, [sp]
 227              	.LBE2:
  95:Core/Src/usart.c **** 
 228              		.loc 1 95 5 view .LVU63
  97:Core/Src/usart.c ****     /**USART1 GPIO Configuration
 229              		.loc 1 97 5 view .LVU64
 230              	.LBB3:
  97:Core/Src/usart.c ****     /**USART1 GPIO Configuration
 231              		.loc 1 97 5 view .LVU65
  97:Core/Src/usart.c ****     /**USART1 GPIO Configuration
 232              		.loc 1 97 5 view .LVU66
 233 0050 D3F8E020 		ldr	r2, [r3, #224]
 234 0054 42F00202 		orr	r2, r2, #2
 235 0058 C3F8E020 		str	r2, [r3, #224]
  97:Core/Src/usart.c ****     /**USART1 GPIO Configuration
 236              		.loc 1 97 5 view .LVU67
 237 005c D3F8E030 		ldr	r3, [r3, #224]
 238 0060 03F00203 		and	r3, r3, #2
 239 0064 0193     		str	r3, [sp, #4]
  97:Core/Src/usart.c ****     /**USART1 GPIO Configuration
 240              		.loc 1 97 5 view .LVU68
 241 0066 019B     		ldr	r3, [sp, #4]
 242              	.LBE3:
  97:Core/Src/usart.c ****     /**USART1 GPIO Configuration
 243              		.loc 1 97 5 view .LVU69
 102:Core/Src/usart.c ****     GPIO_InitStruct.Mode = GPIO_MODE_AF_PP;
 244              		.loc 1 102 5 view .LVU70
 102:Core/Src/usart.c ****     GPIO_InitStruct.Mode = GPIO_MODE_AF_PP;
 245              		.loc 1 102 25 is_stmt 0 view .LVU71
 246 0068 4FF44043 		mov	r3, #49152
 247 006c 3193     		str	r3, [sp, #196]
 103:Core/Src/usart.c ****     GPIO_InitStruct.Pull = GPIO_NOPULL;
 248              		.loc 1 103 5 is_stmt 1 view .LVU72
 103:Core/Src/usart.c ****     GPIO_InitStruct.Pull = GPIO_NOPULL;
 249              		.loc 1 103 26 is_stmt 0 view .LVU73
 250 006e 0223     		movs	r3, #2
 251 0070 3293     		str	r3, [sp, #200]
 104:Core/Src/usart.c ****     GPIO_InitStruct.Speed = GPIO_SPEED_FREQ_LOW;
 252              		.loc 1 104 5 is_stmt 1 view .LVU74
 104:Core/Src/usart.c ****     GPIO_InitStruct.Speed = GPIO_SPEED_FREQ_LOW;
 253              		.loc 1 104 26 is_stmt 0 view .LVU75
 254 0072 0023     		movs	r3, #0
 255 0074 3393     		str	r3, [sp, #204]
 105:Core/Src/usart.c ****     GPIO_InitStruct.Alternate = GPIO_AF4_USART1;
 256              		.loc 1 105 5 is_stmt 1 view .LVU76
 105:Core/Src/usart.c ****     GPIO_InitStruct.Alternate = GPIO_AF4_USART1;
 257              		.loc 1 105 27 is_stmt 0 view .LVU77
 258 0076 3493     		str	r3, [sp, #208]
 106:Core/Src/usart.c ****     HAL_GPIO_Init(GPIOB, &GPIO_InitStruct);
ARM GAS  C:\Users\ADMINI~1\AppData\Local\Temp\cc6ycclI.s 			page 8


 259              		.loc 1 106 5 is_stmt 1 view .LVU78
 106:Core/Src/usart.c ****     HAL_GPIO_Init(GPIOB, &GPIO_InitStruct);
 260              		.loc 1 106 31 is_stmt 0 view .LVU79
 261 0078 0423     		movs	r3, #4
 262 007a 3593     		str	r3, [sp, #212]
 107:Core/Src/usart.c **** 
 263              		.loc 1 107 5 is_stmt 1 view .LVU80
 264 007c 31A9     		add	r1, sp, #196
 265 007e 0548     		ldr	r0, .L19+8
 266 0080 FFF7FEFF 		bl	HAL_GPIO_Init
 267              	.LVL13:
 268              		.loc 1 113 1 is_stmt 0 view .LVU81
 269 0084 CDE7     		b	.L13
 270              	.L18:
  91:Core/Src/usart.c ****     }
 271              		.loc 1 91 7 is_stmt 1 view .LVU82
 272 0086 FFF7FEFF 		bl	Error_Handler
 273              	.LVL14:
 274 008a D4E7     		b	.L15
 275              	.L20:
 276              		.align	2
 277              	.L19:
 278 008c 00100140 		.word	1073811456
 279 0090 00440258 		.word	1476543488
 280 0094 00040258 		.word	1476527104
 281              		.cfi_endproc
 282              	.LFE148:
 284              		.section	.text.HAL_UART_MspDeInit,"ax",%progbits
 285              		.align	1
 286              		.global	HAL_UART_MspDeInit
 287              		.syntax unified
 288              		.thumb
 289              		.thumb_func
 290              		.fpu fpv5-d16
 292              	HAL_UART_MspDeInit:
 293              	.LVL15:
 294              	.LFB149:
 114:Core/Src/usart.c **** 
 115:Core/Src/usart.c **** void HAL_UART_MspDeInit(UART_HandleTypeDef* uartHandle)
 116:Core/Src/usart.c **** {
 295              		.loc 1 116 1 view -0
 296              		.cfi_startproc
 297              		@ args = 0, pretend = 0, frame = 0
 298              		@ frame_needed = 0, uses_anonymous_args = 0
 299              		.loc 1 116 1 is_stmt 0 view .LVU84
 300 0000 08B5     		push	{r3, lr}
 301              	.LCFI5:
 302              		.cfi_def_cfa_offset 8
 303              		.cfi_offset 3, -8
 304              		.cfi_offset 14, -4
 117:Core/Src/usart.c **** 
 118:Core/Src/usart.c ****   if(uartHandle->Instance==USART1)
 305              		.loc 1 118 3 is_stmt 1 view .LVU85
 306              		.loc 1 118 16 is_stmt 0 view .LVU86
 307 0002 0268     		ldr	r2, [r0]
 308              		.loc 1 118 5 view .LVU87
 309 0004 084B     		ldr	r3, .L25
ARM GAS  C:\Users\ADMINI~1\AppData\Local\Temp\cc6ycclI.s 			page 9


 310 0006 9A42     		cmp	r2, r3
 311 0008 00D0     		beq	.L24
 312              	.LVL16:
 313              	.L21:
 119:Core/Src/usart.c ****   {
 120:Core/Src/usart.c ****   /* USER CODE BEGIN USART1_MspDeInit 0 */
 121:Core/Src/usart.c **** 
 122:Core/Src/usart.c ****   /* USER CODE END USART1_MspDeInit 0 */
 123:Core/Src/usart.c ****     /* Peripheral clock disable */
 124:Core/Src/usart.c ****     __HAL_RCC_USART1_CLK_DISABLE();
 125:Core/Src/usart.c **** 
 126:Core/Src/usart.c ****     /**USART1 GPIO Configuration
 127:Core/Src/usart.c ****     PB14     ------> USART1_TX
 128:Core/Src/usart.c ****     PB15     ------> USART1_RX
 129:Core/Src/usart.c ****     */
 130:Core/Src/usart.c ****     HAL_GPIO_DeInit(GPIOB, GPIO_PIN_14|GPIO_PIN_15);
 131:Core/Src/usart.c **** 
 132:Core/Src/usart.c ****   /* USER CODE BEGIN USART1_MspDeInit 1 */
 133:Core/Src/usart.c **** 
 134:Core/Src/usart.c ****   /* USER CODE END USART1_MspDeInit 1 */
 135:Core/Src/usart.c ****   }
 136:Core/Src/usart.c **** }
 314              		.loc 1 136 1 view .LVU88
 315 000a 08BD     		pop	{r3, pc}
 316              	.LVL17:
 317              	.L24:
 124:Core/Src/usart.c **** 
 318              		.loc 1 124 5 is_stmt 1 view .LVU89
 319 000c 074A     		ldr	r2, .L25+4
 320 000e D2F8F030 		ldr	r3, [r2, #240]
 321 0012 23F01003 		bic	r3, r3, #16
 322 0016 C2F8F030 		str	r3, [r2, #240]
 130:Core/Src/usart.c **** 
 323              		.loc 1 130 5 view .LVU90
 324 001a 4FF44041 		mov	r1, #49152
 325 001e 0448     		ldr	r0, .L25+8
 326              	.LVL18:
 130:Core/Src/usart.c **** 
 327              		.loc 1 130 5 is_stmt 0 view .LVU91
 328 0020 FFF7FEFF 		bl	HAL_GPIO_DeInit
 329              	.LVL19:
 330              		.loc 1 136 1 view .LVU92
 331 0024 F1E7     		b	.L21
 332              	.L26:
 333 0026 00BF     		.align	2
 334              	.L25:
 335 0028 00100140 		.word	1073811456
 336 002c 00440258 		.word	1476543488
 337 0030 00040258 		.word	1476527104
 338              		.cfi_endproc
 339              	.LFE149:
 341              		.global	huart1
 342              		.section	.bss.huart1,"aw",%nobits
 343              		.align	2
 344              		.set	.LANCHOR0,. + 0
 347              	huart1:
 348 0000 00000000 		.space	148
ARM GAS  C:\Users\ADMINI~1\AppData\Local\Temp\cc6ycclI.s 			page 10


 348      00000000 
 348      00000000 
 348      00000000 
 348      00000000 
 349              		.text
 350              	.Letext0:
 351              		.file 2 "c:\\program files (x86)\\gnu arm embedded toolchain\\10 2020-q4-major\\arm-none-eabi\\inc
 352              		.file 3 "c:\\program files (x86)\\gnu arm embedded toolchain\\10 2020-q4-major\\arm-none-eabi\\inc
 353              		.file 4 "Drivers/CMSIS/Device/ST/STM32H7xx/Include/stm32h723xx.h"
 354              		.file 5 "Drivers/STM32H7xx_HAL_Driver/Inc/stm32h7xx_hal_def.h"
 355              		.file 6 "Drivers/STM32H7xx_HAL_Driver/Inc/stm32h7xx_hal_rcc_ex.h"
 356              		.file 7 "Drivers/STM32H7xx_HAL_Driver/Inc/stm32h7xx_hal_gpio.h"
 357              		.file 8 "Drivers/STM32H7xx_HAL_Driver/Inc/stm32h7xx_hal_dma.h"
 358              		.file 9 "Drivers/STM32H7xx_HAL_Driver/Inc/stm32h7xx_hal_uart.h"
 359              		.file 10 "Core/Inc/main.h"
 360              		.file 11 "Drivers/STM32H7xx_HAL_Driver/Inc/stm32h7xx_hal_uart_ex.h"
 361              		.file 12 "Core/Inc/usart.h"
 362              		.file 13 "<built-in>"
ARM GAS  C:\Users\ADMINI~1\AppData\Local\Temp\cc6ycclI.s 			page 11

